target datalayout = "e-m:e-p270:32:32-p271:32:32-p272:64:64-i64:64-i128:128-f80:128-n8:16:32:64-S128"
target triple = "x86_64-pc-linux-gnu"

%struct.RStruct = type { %struct.RBasic, %union.anon }
%struct.RBasic = type { i64, i64 }
%union.anon = type { %struct.anon }
%struct.anon = type { i64, ptr }

@rb_cRange = dso_local global i64 0, align 8
@rb_cArithSeq = external global i64, align 8
@id_beg = internal global i64 0, align 8
@id_end = internal global i64 0, align 8
@rb_range_values.rbimpl_id = internal global i64 0, align 8
@.str = private unnamed_addr constant [13 x i8] c"exclude_end?\00", align 1

; Function Attrs: inlinehint nounwind sspstrong willreturn memory(read) uwtable
define internal i64 @RB_FL_TEST_RAW(i64 noundef %0, i64 noundef %1) #7 {
  %3 = alloca i64, align 8
  %4 = alloca i64, align 8
  store i64 %0, ptr %3, align 8, !tbaa !7
  store i64 %1, ptr %4, align 8, !tbaa !7
  %5 = load i64, ptr %3, align 8, !tbaa !7
  %6 = inttoptr i64 %5 to ptr
  %7 = getelementptr inbounds nuw %struct.RBasic, ptr %6, i32 0, i32 0
  %8 = load i64, ptr %7, align 8, !tbaa !44
  %9 = load i64, ptr %4, align 8, !tbaa !7
  %10 = and i64 %8, %9
  ret i64 %10
}

; Function Attrs: inlinehint nounwind sspstrong uwtable
define internal ptr @RSTRUCT_CONST_PTR(i64 noundef %0) #3 {
  %2 = alloca ptr, align 8
  %3 = alloca i64, align 8
  %4 = alloca ptr, align 8
  %5 = alloca i32, align 4
  store i64 %0, ptr %3, align 8, !tbaa !7
  call void @llvm.lifetime.start.p0(i64 8, ptr %4) #18
  %6 = load i64, ptr %3, align 8, !tbaa !7
  %7 = inttoptr i64 %6 to ptr
  store ptr %7, ptr %4, align 8, !tbaa !42
  %8 = load i64, ptr %3, align 8, !tbaa !7
  %9 = call i64 @RB_FL_TEST_RAW(i64 noundef %8, i64 noundef 1040384) #21
  %10 = icmp ne i64 %9, 0
  br i1 %10, label %11, label %15

11:                                               ; preds = %1
  %12 = load ptr, ptr %4, align 8, !tbaa !42
  %13 = getelementptr inbounds nuw %struct.RStruct, ptr %12, i32 0, i32 1
  %14 = getelementptr inbounds [1 x i64], ptr %13, i64 0, i64 0
  store ptr %14, ptr %2, align 8
  store i32 1, ptr %5, align 4
  br label %20

15:                                               ; preds = %1
  %16 = load ptr, ptr %4, align 8, !tbaa !42
  %17 = getelementptr inbounds nuw %struct.RStruct, ptr %16, i32 0, i32 1
  %18 = getelementptr inbounds nuw %struct.anon, ptr %17, i32 0, i32 1
  %19 = load ptr, ptr %18, align 8, !tbaa !18
  store ptr %19, ptr %2, align 8
  store i32 1, ptr %5, align 4
  br label %20

20:                                               ; preds = %15, %11
  call void @llvm.lifetime.end.p0(i64 8, ptr %4) #18
  %21 = load ptr, ptr %2, align 8
  ret ptr %21
}

; Function Attrs: inlinehint nounwind sspstrong willreturn memory(read) uwtable
define internal i64 @rb_intern_const(ptr noundef nonnull %0) #7 {
  %2 = alloca ptr, align 8
  %3 = alloca i64, align 8
  store ptr %0, ptr %2, align 8, !tbaa !19
  call void @llvm.lifetime.start.p0(i64 8, ptr %3) #18
  %4 = load ptr, ptr %2, align 8, !tbaa !19
  %5 = call i64 @strlen(ptr noundef %4) #21
  store i64 %5, ptr %3, align 8, !tbaa !7
  %6 = load ptr, ptr %2, align 8, !tbaa !19
  %7 = load i64, ptr %3, align 8, !tbaa !7
  %8 = call i64 @rb_intern2(ptr noundef %6, i64 noundef %7)
  call void @llvm.lifetime.end.p0(i64 8, ptr %3) #18
  ret i64 %8
}

; Function Attrs: inlinehint nounwind sspstrong uwtable
define internal i64 @internal_RSTRUCT_GET(i64 noundef %0, i64 noundef %1) #3 {
  %3 = alloca i64, align 8
  %4 = alloca i64, align 8
  store i64 %0, ptr %3, align 8, !tbaa !7
  store i64 %1, ptr %4, align 8, !tbaa !7
  %5 = load i64, ptr %3, align 8, !tbaa !7
  %6 = call ptr @RSTRUCT_CONST_PTR(i64 noundef %5)
  %7 = load i64, ptr %4, align 8, !tbaa !7
  %8 = getelementptr i64, ptr %6, i64 %7
  %9 = load i64, ptr %8, align 8, !tbaa !7
  ret i64 %9
}

; Function Attrs: inlinehint nounwind sspstrong memory(argmem: readwrite, inaccessiblemem: readwrite) uwtable
define internal i64 @rbimpl_intern_const(ptr noundef nonnull %0, ptr noundef nonnull %1) #5 {
  %3 = alloca ptr, align 8
  %4 = alloca ptr, align 8
  store ptr %0, ptr %3, align 8, !tbaa !13
  store ptr %1, ptr %4, align 8, !tbaa !19
  br label %5

5:                                                ; preds = %10, %2
  %6 = load ptr, ptr %3, align 8, !tbaa !13
  %7 = load i64, ptr %6, align 8, !tbaa !7
  %8 = icmp ne i64 %7, 0
  %9 = xor i1 %8, true
  br i1 %9, label %10, label %14

10:                                               ; preds = %5
  %11 = load ptr, ptr %4, align 8, !tbaa !19
  %12 = call i64 @rb_intern_const(ptr noundef %11) #21
  %13 = load ptr, ptr %3, align 8, !tbaa !13
  store i64 %12, ptr %13, align 8, !tbaa !7
  br label %5, !llvm.loop !21

14:                                               ; preds = %5
  %15 = load ptr, ptr %3, align 8, !tbaa !13
  %16 = load i64, ptr %15, align 8, !tbaa !7
  ret i64 %16
}

; Function Attrs: inlinehint nounwind sspstrong willreturn memory(none) uwtable
define internal zeroext i1 @RB_UNDEF_P(i64 noundef %0) #4 {
  %2 = alloca i64, align 8
  store i64 %0, ptr %2, align 8, !tbaa !7
  %3 = load i64, ptr %2, align 8, !tbaa !7
  %4 = icmp eq i64 %3, 36
  ret i1 %4
}

; Function Attrs: inlinehint nounwind sspstrong willreturn memory(none) uwtable
define internal zeroext i1 @RB_TEST(i64 noundef %0) #4 {
  %2 = alloca i64, align 8
  store i64 %0, ptr %2, align 8, !tbaa !7
  %3 = load i64, ptr %2, align 8, !tbaa !7
  %4 = and i64 %3, -5
  %5 = icmp ne i64 %4, 0
  ret i1 %5
}

; Function Attrs: inlinehint nounwind sspstrong uwtable
define internal i64 @RANGE_EXCL(i64 noundef %0) #3 {
  %2 = alloca i64, align 8
  store i64 %0, ptr %2, align 8, !tbaa !7
  %3 = load i64, ptr %2, align 8, !tbaa !7
  %4 = call i64 @internal_RSTRUCT_GET(i64 noundef %3, i64 noundef 2)
  ret i64 %4
}

; Function Attrs: inlinehint nounwind sspstrong uwtable
define internal i64 @RANGE_END(i64 noundef %0) #3 {
  %2 = alloca i64, align 8
  store i64 %0, ptr %2, align 8, !tbaa !7
  %3 = load i64, ptr %2, align 8, !tbaa !7
  %4 = call i64 @internal_RSTRUCT_GET(i64 noundef %3, i64 noundef 1)
  ret i64 %4
}

; Function Attrs: inlinehint nounwind sspstrong uwtable
define internal i64 @RANGE_BEG(i64 noundef %0) #3 {
  %2 = alloca i64, align 8
  store i64 %0, ptr %2, align 8, !tbaa !7
  %3 = load i64, ptr %2, align 8, !tbaa !7
  %4 = inttoptr i64 %3 to ptr
  %5 = getelementptr inbounds nuw %struct.RStruct, ptr %4, i32 0, i32 1
  %6 = getelementptr [1 x i64], ptr %5, i64 0, i64 0
  %7 = load i64, ptr %6, align 8, !tbaa !18
  ret i64 %7
}

; Function Attrs: nounwind sspstrong uwtable
define dso_local i32 @rb_range_values(i64 noundef %0, ptr noundef nonnull %1, ptr noundef nonnull %2, ptr noundef nonnull %3) #0 {
  %5 = alloca i32, align 4
  %6 = alloca i64, align 8
  %7 = alloca ptr, align 8
  %8 = alloca ptr, align 8
  %9 = alloca ptr, align 8
  %10 = alloca i64, align 8
  %11 = alloca i64, align 8
  %12 = alloca i32, align 4
  %13 = alloca i32, align 4
  %14 = alloca i64, align 8
  %15 = alloca i64, align 8
  store i64 %0, ptr %6, align 8, !tbaa !7
  store ptr %1, ptr %7, align 8, !tbaa !13
  store ptr %2, ptr %8, align 8, !tbaa !13
  store ptr %3, ptr %9, align 8, !tbaa !16
  call void @llvm.lifetime.start.p0(i64 8, ptr %10) #18
  call void @llvm.lifetime.start.p0(i64 8, ptr %11) #18
  call void @llvm.lifetime.start.p0(i64 4, ptr %12) #18
  %16 = load i64, ptr %6, align 8, !tbaa !7
  %17 = load i64, ptr @rb_cRange, align 8, !tbaa !7
  %18 = call i64 @rb_obj_is_kind_of(i64 noundef %16, i64 noundef %17)
  %19 = icmp ne i64 %18, 0
  br i1 %19, label %20, label %29

20:                                               ; preds = %4
  %21 = load i64, ptr %6, align 8, !tbaa !7
  %22 = call i64 @RANGE_BEG(i64 noundef %21)
  store i64 %22, ptr %10, align 8, !tbaa !7
  %23 = load i64, ptr %6, align 8, !tbaa !7
  %24 = call i64 @RANGE_END(i64 noundef %23)
  store i64 %24, ptr %11, align 8, !tbaa !7
  %25 = load i64, ptr %6, align 8, !tbaa !7
  %26 = call i64 @RANGE_EXCL(i64 noundef %25)
  %27 = call zeroext i1 @RB_TEST(i64 noundef %26) #19
  %28 = zext i1 %27 to i32
  store i32 %28, ptr %12, align 4, !tbaa !11
  br label %65

29:                                               ; preds = %4
  %30 = load i64, ptr %6, align 8, !tbaa !7
  %31 = load i64, ptr @rb_cArithSeq, align 8, !tbaa !7
  %32 = call i64 @rb_obj_is_kind_of(i64 noundef %30, i64 noundef %31)
  %33 = call zeroext i1 @RB_TEST(i64 noundef %32) #19
  br i1 %33, label %34, label %35

34:                                               ; preds = %29
  store i32 0, ptr %5, align 4
  store i32 1, ptr %13, align 4
  br label %72

35:                                               ; preds = %29
  call void @llvm.lifetime.start.p0(i64 8, ptr %14) #18
  %36 = load i64, ptr %6, align 8, !tbaa !7
  %37 = load i64, ptr @id_beg, align 8, !tbaa !7
  %38 = call i64 @rb_check_funcall(i64 noundef %36, i64 noundef %37, i32 noundef 0, ptr noundef null)
  store i64 %38, ptr %10, align 8, !tbaa !7
  %39 = load i64, ptr %10, align 8, !tbaa !7
  %40 = call zeroext i1 @RB_UNDEF_P(i64 noundef %39) #19
  br i1 %40, label %41, label %42

41:                                               ; preds = %35
  store i32 0, ptr %5, align 4
  store i32 1, ptr %13, align 4
  br label %61

42:                                               ; preds = %35
  %43 = load i64, ptr %6, align 8, !tbaa !7
  %44 = load i64, ptr @id_end, align 8, !tbaa !7
  %45 = call i64 @rb_check_funcall(i64 noundef %43, i64 noundef %44, i32 noundef 0, ptr noundef null)
  store i64 %45, ptr %11, align 8, !tbaa !7
  %46 = load i64, ptr %11, align 8, !tbaa !7
  %47 = call zeroext i1 @RB_UNDEF_P(i64 noundef %46) #19
  br i1 %47, label %48, label %49

48:                                               ; preds = %42
  store i32 0, ptr %5, align 4
  store i32 1, ptr %13, align 4
  br label %61

49:                                               ; preds = %42
  %50 = load i64, ptr %6, align 8, !tbaa !7
  %51 = call i64 @rbimpl_intern_const(ptr noundef @rb_range_values.rbimpl_id, ptr noundef @.str) #22
  store i64 %51, ptr %15, align 8, !tbaa !7
  %52 = load i64, ptr %15, align 8, !tbaa !7
  %53 = call i64 @rb_check_funcall(i64 noundef %50, i64 noundef %52, i32 noundef 0, ptr noundef null)
  store i64 %53, ptr %14, align 8, !tbaa !7
  %54 = load i64, ptr %14, align 8, !tbaa !7
  %55 = call zeroext i1 @RB_UNDEF_P(i64 noundef %54) #19
  br i1 %55, label %56, label %57

56:                                               ; preds = %49
  store i32 0, ptr %5, align 4
  store i32 1, ptr %13, align 4
  br label %61

57:                                               ; preds = %49
  %58 = load i64, ptr %14, align 8, !tbaa !7
  %59 = call zeroext i1 @RB_TEST(i64 noundef %58) #19
  %60 = zext i1 %59 to i32
  store i32 %60, ptr %12, align 4, !tbaa !11
  store i32 0, ptr %13, align 4
  br label %61

61:                                               ; preds = %57, %56, %48, %41
  call void @llvm.lifetime.end.p0(i64 8, ptr %14) #18
  %62 = load i32, ptr %13, align 4
  switch i32 %62, label %72 [
    i32 0, label %63
  ]

63:                                               ; preds = %61
  br label %64

64:                                               ; preds = %63
  br label %65

65:                                               ; preds = %64, %20
  %66 = load i64, ptr %10, align 8, !tbaa !7
  %67 = load ptr, ptr %7, align 8, !tbaa !13
  store i64 %66, ptr %67, align 8, !tbaa !7
  %68 = load i64, ptr %11, align 8, !tbaa !7
  %69 = load ptr, ptr %8, align 8, !tbaa !13
  store i64 %68, ptr %69, align 8, !tbaa !7
  %70 = load i32, ptr %12, align 4, !tbaa !11
  %71 = load ptr, ptr %9, align 8, !tbaa !16
  store i32 %70, ptr %71, align 4, !tbaa !11
  store i32 20, ptr %5, align 4
  store i32 1, ptr %13, align 4
  br label %72

72:                                               ; preds = %65, %61, %34
  call void @llvm.lifetime.end.p0(i64 4, ptr %12) #18
  call void @llvm.lifetime.end.p0(i64 8, ptr %11) #18
  call void @llvm.lifetime.end.p0(i64 8, ptr %10) #18
  %73 = load i32, ptr %5, align 4
  ret i32 %73
}