; Function Attrs: nounwind sspstrong uwtable
define dso_local range(i32 0, 21) i32 @rb_range_values(i64 noundef %0, ptr noundef nonnull writeonly captures(none) %1, ptr noundef nonnull writeonly captures(none) %2, ptr noundef nonnull writeonly captures(none) %3) local_unnamed_addr #0 {
  %5 = load i64, ptr @rb_cRange, align 8, !tbaa !7
  %6 = tail call i64 @rb_obj_is_kind_of(i64 noundef %0, i64 noundef %5) #13
  %.not = icmp eq i64 %6, 0
  br i1 %.not, label %20, label %7

7:                                                ; preds = %4
  %8 = inttoptr i64 %0 to ptr
  %9 = getelementptr inbounds nuw i8, ptr %8, i64 16
  %10 = load i64, ptr %9, align 8, !tbaa !13
  %11 = load i64, ptr %8, align 8, !tbaa !11
  %12 = and i64 %11, 1040384
  %.not.i.i.i = icmp eq i64 %12, 0
  %13 = getelementptr i8, ptr %8, i64 24
  br i1 %.not.i.i.i, label %14, label %RANGE_EXCL.exit

14:                                               ; preds = %7
  %15 = load ptr, ptr %13, align 8, !tbaa !13
  %16 = getelementptr i8, ptr %15, i64 8
  br label %RANGE_EXCL.exit

RANGE_EXCL.exit:                                  ; preds = %7, %14
  %.in = phi ptr [ %16, %14 ], [ %13, %7 ]
  %.0.i.i.i27 = phi ptr [ %15, %14 ], [ %9, %7 ]
  %17 = load i64, ptr %.in, align 8, !tbaa !7
  %18 = getelementptr i8, ptr %.0.i.i.i27, i64 16
  %19 = load i64, ptr %18, align 8, !tbaa !7
  br label %36

20:                                               ; preds = %4
  %21 = load i64, ptr @rb_cArithSeq, align 8, !tbaa !7
  %22 = tail call i64 @rb_obj_is_kind_of(i64 noundef %0, i64 noundef %21) #13
  %23 = and i64 %22, -5
  %.not32 = icmp eq i64 %23, 0
  br i1 %.not32, label %24, label %.thread

24:                                               ; preds = %20
  %25 = load i64, ptr @id_beg, align 8, !tbaa !7
  %26 = tail call i64 @rb_check_funcall(i64 noundef %0, i64 noundef %25, i32 noundef 0, ptr noundef null) #13
  %27 = icmp eq i64 %26, 36
  br i1 %27, label %.thread, label %28

28:                                               ; preds = %24
  %29 = load i64, ptr @id_end, align 8, !tbaa !7
  %30 = tail call i64 @rb_check_funcall(i64 noundef %0, i64 noundef %29, i32 noundef 0, ptr noundef null) #13
  %31 = icmp eq i64 %30, 36
  br i1 %31, label %.thread, label %32

32:                                               ; preds = %28
  %.pr.i = load i64, ptr @rb_range_values.rbimpl_id, align 8, !tbaa !7
  %.not4.i = icmp eq i64 %.pr.i, 0
  br i1 %.not4.i, label %.lr.ph.i, label %rbimpl_intern_const.exit

.lr.ph.i:                                         ; preds = %32, %.lr.ph.i
  %33 = tail call i64 @rb_intern2(ptr noundef nonnull @.str, i64 noundef 12) #13
  store i64 %33, ptr @rb_range_values.rbimpl_id, align 8, !tbaa !7
  %.not.i = icmp eq i64 %33, 0
  br i1 %.not.i, label %.lr.ph.i, label %rbimpl_intern_const.exit, !llvm.loop !14

rbimpl_intern_const.exit:                         ; preds = %.lr.ph.i, %32
  %.lcssa.i = phi i64 [ %.pr.i, %32 ], [ %33, %.lr.ph.i ]
  %34 = tail call i64 @rb_check_funcall(i64 noundef %0, i64 noundef %.lcssa.i, i32 noundef 0, ptr noundef null) #13
  %35 = icmp eq i64 %34, 36
  br i1 %35, label %.thread, label %36

36:                                               ; preds = %rbimpl_intern_const.exit, %RANGE_EXCL.exit
  %.024 = phi i64 [ %17, %RANGE_EXCL.exit ], [ %30, %rbimpl_intern_const.exit ]
  %.022.in.in.in = phi i64 [ %19, %RANGE_EXCL.exit ], [ %34, %rbimpl_intern_const.exit ]
  %.020 = phi i64 [ %10, %RANGE_EXCL.exit ], [ %26, %rbimpl_intern_const.exit ]
  %.022.in.in = and i64 %.022.in.in.in, -5
  %.022.in = icmp ne i64 %.022.in.in, 0
  %.022 = zext i1 %.022.in to i32
  store i64 %.020, ptr %1, align 8, !tbaa !7
  store i64 %.024, ptr %2, align 8, !tbaa !7
  store i32 %.022, ptr %3, align 4, !tbaa !16
  br label %.thread

.thread:                                          ; preds = %rbimpl_intern_const.exit, %28, %24, %20, %36
  %.0 = phi i32 [ 20, %36 ], [ 0, %20 ], [ 0, %24 ], [ 0, %28 ], [ 0, %rbimpl_intern_const.exit ]
  ret i32 %.0
}